; Function Attrs: mustprogress nounwind uwtable
define dso_local void @_ZN4llvm18AArch64InstPrinter22printSIMDType10OperandEPKNS_6MCInstEjRKNS_15MCSubtargetInfoERNS_11raw_ostreamE(ptr noundef nonnull align 8 dereferenceable(58) %0, ptr nocapture noundef readonly %1, i32 noundef %2, ptr nocapture nonnull readnone align 8 %3, ptr noundef nonnull align 8 dereferenceable(48) %4) local_unnamed_addr #1 align 2 {
  %6 = alloca %"class.llvm::MCInstPrinter::WithMarkup", align 8
  %7 = alloca %"class.llvm::format_object.19", align 8
  %8 = getelementptr inbounds nuw i8, ptr %1, i64 16
  %9 = zext i32 %2 to i64
  %10 = load ptr, ptr %8, align 8
  %11 = getelementptr inbounds %"class.llvm::MCOperand", ptr %10, i64 %9, i32 1
  %12 = load i64, ptr %11, align 8
  %13 = trunc i64 %12 to i32
  %14 = and i64 %12, 128
  %.not.i = icmp eq i64 %14, 0
  %spec.select.i = select i1 %.not.i, i64 0, i64 -72057594037927936
  %15 = and i32 %13, 64
  %.not17.i = icmp eq i32 %15, 0
  %16 = or disjoint i64 %spec.select.i, 71776119061217280
  %.1.i = select i1 %.not17.i, i64 %spec.select.i, i64 %16
  %17 = and i32 %13, 32
  %.not18.i = icmp eq i32 %17, 0
  %18 = or disjoint i64 %.1.i, 280375465082880
  %.2.i = select i1 %.not18.i, i64 %.1.i, i64 %18
  %19 = and i32 %13, 16
  %.not19.i = icmp eq i32 %19, 0
  %20 = or disjoint i64 %.2.i, 1095216660480
  %.3.i = select i1 %.not19.i, i64 %.2.i, i64 %20
  %21 = and i32 %13, 8
  %.not20.i = icmp eq i32 %21, 0
  %22 = or i64 %.3.i, 4278190080
  %.4.i = select i1 %.not20.i, i64 %.3.i, i64 %22
  %23 = and i32 %13, 4
  %.not21.i = icmp eq i32 %23, 0
  %24 = or i64 %.4.i, 16711680
  %.5.i = select i1 %.not21.i, i64 %.4.i, i64 %24
  %25 = and i32 %13, 2
  %.not22.i = icmp eq i32 %25, 0
  %26 = or i64 %.5.i, 65280
  %.6.i = select i1 %.not22.i, i64 %.5.i, i64 %26
  %27 = and i32 %13, 1
  %.not23.i = icmp eq i32 %27, 0
  %28 = or i64 %.6.i, 255
  %.7.i = select i1 %.not23.i, i64 %.6.i, i64 %28
  call void @_ZNK4llvm13MCInstPrinter6markupERNS_11raw_ostreamENS0_6MarkupE(ptr dead_on_unwind nonnull writable sret(%"class.llvm::MCInstPrinter::WithMarkup") align 8 %6, ptr noundef nonnull align 8 dereferenceable(58) %0, ptr noundef nonnull align 8 dereferenceable(48) %4, i32 noundef 0) #22
  %29 = getelementptr inbounds nuw i8, ptr %7, i64 8
  store ptr @.str.130, ptr %29, align 8, !alias.scope !181
  store ptr getelementptr inbounds inrange(-16, 16) (i8, ptr @_ZTVN4llvm13format_objectIJmEEE, i64 16), ptr %7, align 8, !alias.scope !181
  %30 = getelementptr inbounds nuw i8, ptr %7, i64 16
  store i64 %.7.i, ptr %30, align 8, !alias.scope !181
  %31 = load ptr, ptr %6, align 8
  %32 = call noundef nonnull align 8 dereferenceable(48) ptr @_ZN4llvm11raw_ostreamlsERKNS_18format_object_baseE(ptr noundef nonnull align 8 dereferenceable(48) %31, ptr noundef nonnull align 8 dereferenceable(16) %7) #22
  call void @_ZN4llvm13MCInstPrinter10WithMarkupD1Ev(ptr noundef nonnull align 8 dereferenceable(10) %6) #22
  ret void
}